; Function Attrs: mustprogress uwtable
define noundef nonnull align 8 dereferenceable(65) ptr @_ZN4LIEF3DEX5FieldaSERKS1_(ptr noundef nonnull returned align 8 dereferenceable(65) %0, ptr noundef nonnull align 8 dereferenceable(65) %1) local_unnamed_addr #2 align 2 {
  %3 = tail call noundef nonnull align 8 dereferenceable(8) ptr @_ZN4LIEF6ObjectaSERKS0_(ptr noundef nonnull align 8 dereferenceable(8) %0, ptr noundef nonnull align 8 dereferenceable(8) %1)
  %4 = getelementptr inbounds i8, ptr %0, i64 8
  %5 = getelementptr inbounds i8, ptr %1, i64 8
  %6 = tail call noundef nonnull align 8 dereferenceable(32) ptr @_ZNSt7__cxx1112basic_stringIcSt11char_traitsIcESaIcEEaSERKS4_(ptr noundef nonnull align 8 dereferenceable(32) %4, ptr noundef nonnull align 8 dereferenceable(32) %5)
  %7 = getelementptr inbounds i8, ptr %0, i64 40
  %8 = getelementptr inbounds i8, ptr %1, i64 40
  tail call void @llvm.memcpy.p0.p0.i64(ptr noundef nonnull align 8 dereferenceable(25) %7, ptr noundef nonnull align 8 dereferenceable(25) %8, i64 25, i1 false)
  ret ptr %0
}